SF:/Users/stefano/Documents/mdserve/src/app.rs
FN:544,_RINvNtCsllJMZ0fVxzl_7mdserve3app14serve_markdownpEB4_
FN:550,_RNCINvNtCsllJMZ0fVxzl_7mdserve3app14serve_markdownpE0B6_
FN:228,_RNCNCNCNvMNtCsllJMZ0fVxzl_7mdserve3appNtB8_13MarkdownState16rescan_directory000Ba_
FN:224,_RNCNCNvMNtCsllJMZ0fVxzl_7mdserve3appNtB6_13MarkdownState16rescan_directory00B8_
FN:538,_RNCNCNvNtCsllJMZ0fVxzl_7mdserve3app10new_routers0_00B7_
FN:588,_RNCNCNvNtCsllJMZ0fVxzl_7mdserve3app13api_get_files00B7_
FN:737,_RNCNCNvNtCsllJMZ0fVxzl_7mdserve3app16handle_websocket00B7_
FN:753,_RNCNCNvNtCsllJMZ0fVxzl_7mdserve3app16handle_websocket0s_0B7_
FN:726,_RNCNCNvNtCsllJMZ0fVxzl_7mdserve3app17websocket_handler00B7_
FN:363,_RNCNCNvNtCsllJMZ0fVxzl_7mdserve3app25rescan_and_detect_changes00B7_
FN:223,_RNCNvMNtCsllJMZ0fVxzl_7mdserve3appNtB4_13MarkdownState16rescan_directory0B6_
FN:241,_RNCNvMNtCsllJMZ0fVxzl_7mdserve3appNtB4_13MarkdownState16rescan_directorys_0B6_
FN:493,_RNCNvNtCsllJMZ0fVxzl_7mdserve3app10new_router0B5_
FN:538,_RNCNvNtCsllJMZ0fVxzl_7mdserve3app10new_routers0_0B5_
FN:503,_RNCNvNtCsllJMZ0fVxzl_7mdserve3app10new_routers_0B5_
FN:597,_RNCNvNtCsllJMZ0fVxzl_7mdserve3app12api_get_file0B5_
FN:583,_RNCNvNtCsllJMZ0fVxzl_7mdserve3app13api_get_files0B5_
FN:694,_RNCNvNtCsllJMZ0fVxzl_7mdserve3app13is_image_file0B5_
FN:687,_RNCNvNtCsllJMZ0fVxzl_7mdserve3app13server_health0B5_
FN:628,_RNCNvNtCsllJMZ0fVxzl_7mdserve3app15api_update_file0B5_
FN:644,_RNCNvNtCsllJMZ0fVxzl_7mdserve3app16api_serve_static0B5_
FN:429,_RNCNvNtCsllJMZ0fVxzl_7mdserve3app16handle_md_remove0B5_
FN:729,_RNCNvNtCsllJMZ0fVxzl_7mdserve3app16handle_websocket0B5_
FN:96,_RNCNvNtCsllJMZ0fVxzl_7mdserve3app16is_markdown_file0B5_
FN:97,_RNCNvNtCsllJMZ0fVxzl_7mdserve3app16is_markdown_files_0B5_
FN:443,_RNCNvNtCsllJMZ0fVxzl_7mdserve3app17handle_file_event0B5_
FN:725,_RNCNvNtCsllJMZ0fVxzl_7mdserve3app17websocket_handler0B5_
FN:438,_RNCNvNtCsllJMZ0fVxzl_7mdserve3app19handle_image_change0B5_
FN:396,_RNCNvNtCsllJMZ0fVxzl_7mdserve3app19handle_rename_event0B5_
FN:105,_RNCNvNtCsllJMZ0fVxzl_7mdserve3app23calculate_relative_path0B5_
FN:386,_RNCNvNtCsllJMZ0fVxzl_7mdserve3app23schedule_delayed_rescan0B5_
FN:706,_RNCNvNtCsllJMZ0fVxzl_7mdserve3app24guess_image_content_type0B5_
FN:356,_RNCNvNtCsllJMZ0fVxzl_7mdserve3app25rescan_and_detect_changes0B5_
FN:425,_RNCNvNtCsllJMZ0fVxzl_7mdserve3app26handle_md_create_or_modify0B5_
FN:282,_RNCNvNtCsllJMZ0fVxzl_7mdserve3app27handle_markdown_file_change0B5_
FN:177,_RNvMNtCsllJMZ0fVxzl_7mdserve3appNtB2_13MarkdownState11update_file
FN:162,_RNvMNtCsllJMZ0fVxzl_7mdserve3appNtB2_13MarkdownState12refresh_file
FN:191,_RNvMNtCsllJMZ0fVxzl_7mdserve3appNtB2_13MarkdownState16add_tracked_file
FN:215,_RNvMNtCsllJMZ0fVxzl_7mdserve3appNtB2_13MarkdownState16rescan_directory
FN:156,_RNvMNtCsllJMZ0fVxzl_7mdserve3appNtB2_13MarkdownState20get_sorted_filenames
FN:126,_RNvMNtCsllJMZ0fVxzl_7mdserve3appNtB2_13MarkdownState3new
FN:476,_RNvNtCsllJMZ0fVxzl_7mdserve3app10new_router
FN:575,_RNvNtCsllJMZ0fVxzl_7mdserve3app11format_host
FN:594,_RNvNtCsllJMZ0fVxzl_7mdserve3app12api_get_file
FN:583,_RNvNtCsllJMZ0fVxzl_7mdserve3app13api_get_files
FN:691,_RNvNtCsllJMZ0fVxzl_7mdserve3app13is_image_file
FN:687,_RNvNtCsllJMZ0fVxzl_7mdserve3app13server_health
FN:624,_RNvNtCsllJMZ0fVxzl_7mdserve3app15api_update_file
FN:641,_RNvNtCsllJMZ0fVxzl_7mdserve3app16api_serve_static
FN:429,_RNvNtCsllJMZ0fVxzl_7mdserve3app16handle_md_remove
FN:729,_RNvNtCsllJMZ0fVxzl_7mdserve3app16handle_websocket
FN:94,_RNvNtCsllJMZ0fVxzl_7mdserve3app16is_markdown_file
FN:443,_RNvNtCsllJMZ0fVxzl_7mdserve3app17handle_file_event
FN:722,_RNvNtCsllJMZ0fVxzl_7mdserve3app17websocket_handler
FN:312,_RNvNtCsllJMZ0fVxzl_7mdserve3app18detect_file_change
FN:438,_RNvNtCsllJMZ0fVxzl_7mdserve3app19handle_image_change
FN:392,_RNvNtCsllJMZ0fVxzl_7mdserve3app19handle_rename_event
FN:72,_RNvNtCsllJMZ0fVxzl_7mdserve3app19scan_markdown_files
FN:344,_RNvNtCsllJMZ0fVxzl_7mdserve3app19send_change_message
FN:101,_RNvNtCsllJMZ0fVxzl_7mdserve3app23calculate_relative_path
FN:384,_RNvNtCsllJMZ0fVxzl_7mdserve3app23schedule_delayed_rescan
FN:703,_RNvNtCsllJMZ0fVxzl_7mdserve3app24guess_image_content_type
FN:356,_RNvNtCsllJMZ0fVxzl_7mdserve3app25rescan_and_detect_changes
FN:425,_RNvNtCsllJMZ0fVxzl_7mdserve3app26handle_md_create_or_modify
FN:282,_RNvNtCsllJMZ0fVxzl_7mdserve3app27handle_markdown_file_change
FN:79,_RNvNtCsllJMZ0fVxzl_7mdserve3app29scan_markdown_files_recursive
FN:228,_RNCNCNCNvMNtCsgivOkgXOeDn_7mdserve3appNtB8_13MarkdownState16rescan_directory000Ba_
FN:224,_RNCNCNvMNtCsgivOkgXOeDn_7mdserve3appNtB6_13MarkdownState16rescan_directory00B8_
FN:223,_RNCNvMNtCsgivOkgXOeDn_7mdserve3appNtB4_13MarkdownState16rescan_directory0B6_
FN:241,_RNCNvMNtCsgivOkgXOeDn_7mdserve3appNtB4_13MarkdownState16rescan_directorys_0B6_
FN:694,_RNCNvNtCsgivOkgXOeDn_7mdserve3app13is_image_file0B5_
FN:96,_RNCNvNtCsgivOkgXOeDn_7mdserve3app16is_markdown_file0B5_
FN:97,_RNCNvNtCsgivOkgXOeDn_7mdserve3app16is_markdown_files_0B5_
FN:105,_RNCNvNtCsgivOkgXOeDn_7mdserve3app23calculate_relative_path0B5_
FN:177,_RNvMNtCsgivOkgXOeDn_7mdserve3appNtB2_13MarkdownState11update_file
FN:162,_RNvMNtCsgivOkgXOeDn_7mdserve3appNtB2_13MarkdownState12refresh_file
FN:191,_RNvMNtCsgivOkgXOeDn_7mdserve3appNtB2_13MarkdownState16add_tracked_file
FN:215,_RNvMNtCsgivOkgXOeDn_7mdserve3appNtB2_13MarkdownState16rescan_directory
FN:126,_RNvMNtCsgivOkgXOeDn_7mdserve3appNtB2_13MarkdownState3new
FN:575,_RNvNtCsgivOkgXOeDn_7mdserve3app11format_host
FN:691,_RNvNtCsgivOkgXOeDn_7mdserve3app13is_image_file
FN:94,_RNvNtCsgivOkgXOeDn_7mdserve3app16is_markdown_file
FN:312,_RNvNtCsgivOkgXOeDn_7mdserve3app18detect_file_change
FN:72,_RNvNtCsgivOkgXOeDn_7mdserve3app19scan_markdown_files
FN:344,_RNvNtCsgivOkgXOeDn_7mdserve3app19send_change_message
FN:101,_RNvNtCsgivOkgXOeDn_7mdserve3app23calculate_relative_path
FN:79,_RNvNtCsgivOkgXOeDn_7mdserve3app29scan_markdown_files_recursive
FN:544,_RINvNtCsgivOkgXOeDn_7mdserve3app14serve_markdownpEB4_
FN:550,_RNCINvNtCsgivOkgXOeDn_7mdserve3app14serve_markdownpE0B6_
FN:538,_RNCNCNvNtCsgivOkgXOeDn_7mdserve3app10new_routers0_00B7_
FN:588,_RNCNCNvNtCsgivOkgXOeDn_7mdserve3app13api_get_files00B7_
FN:737,_RNCNCNvNtCsgivOkgXOeDn_7mdserve3app16handle_websocket00B7_
FN:753,_RNCNCNvNtCsgivOkgXOeDn_7mdserve3app16handle_websocket0s_0B7_
FN:726,_RNCNCNvNtCsgivOkgXOeDn_7mdserve3app17websocket_handler00B7_
FN:363,_RNCNCNvNtCsgivOkgXOeDn_7mdserve3app25rescan_and_detect_changes00B7_
FN:493,_RNCNvNtCsgivOkgXOeDn_7mdserve3app10new_router0B5_
FN:538,_RNCNvNtCsgivOkgXOeDn_7mdserve3app10new_routers0_0B5_
FN:503,_RNCNvNtCsgivOkgXOeDn_7mdserve3app10new_routers_0B5_
FN:597,_RNCNvNtCsgivOkgXOeDn_7mdserve3app12api_get_file0B5_
FN:583,_RNCNvNtCsgivOkgXOeDn_7mdserve3app13api_get_files0B5_
FN:687,_RNCNvNtCsgivOkgXOeDn_7mdserve3app13server_health0B5_
FN:628,_RNCNvNtCsgivOkgXOeDn_7mdserve3app15api_update_file0B5_
FN:644,_RNCNvNtCsgivOkgXOeDn_7mdserve3app16api_serve_static0B5_
FN:429,_RNCNvNtCsgivOkgXOeDn_7mdserve3app16handle_md_remove0B5_
FN:729,_RNCNvNtCsgivOkgXOeDn_7mdserve3app16handle_websocket0B5_
FN:443,_RNCNvNtCsgivOkgXOeDn_7mdserve3app17handle_file_event0B5_
FN:725,_RNCNvNtCsgivOkgXOeDn_7mdserve3app17websocket_handler0B5_
FN:438,_RNCNvNtCsgivOkgXOeDn_7mdserve3app19handle_image_change0B5_
FN:396,_RNCNvNtCsgivOkgXOeDn_7mdserve3app19handle_rename_event0B5_
FN:386,_RNCNvNtCsgivOkgXOeDn_7mdserve3app23schedule_delayed_rescan0B5_
FN:706,_RNCNvNtCsgivOkgXOeDn_7mdserve3app24guess_image_content_type0B5_
FN:356,_RNCNvNtCsgivOkgXOeDn_7mdserve3app25rescan_and_detect_changes0B5_
FN:425,_RNCNvNtCsgivOkgXOeDn_7mdserve3app26handle_md_create_or_modify0B5_
FN:282,_RNCNvNtCsgivOkgXOeDn_7mdserve3app27handle_markdown_file_change0B5_
FN:156,_RNvMNtCsgivOkgXOeDn_7mdserve3appNtB2_13MarkdownState20get_sorted_filenames
FN:476,_RNvNtCsgivOkgXOeDn_7mdserve3app10new_router
FN:594,_RNvNtCsgivOkgXOeDn_7mdserve3app12api_get_file
FN:583,_RNvNtCsgivOkgXOeDn_7mdserve3app13api_get_files
FN:687,_RNvNtCsgivOkgXOeDn_7mdserve3app13server_health
FN:624,_RNvNtCsgivOkgXOeDn_7mdserve3app15api_update_file
FN:641,_RNvNtCsgivOkgXOeDn_7mdserve3app16api_serve_static
FN:429,_RNvNtCsgivOkgXOeDn_7mdserve3app16handle_md_remove
FN:729,_RNvNtCsgivOkgXOeDn_7mdserve3app16handle_websocket
FN:443,_RNvNtCsgivOkgXOeDn_7mdserve3app17handle_file_event
FN:722,_RNvNtCsgivOkgXOeDn_7mdserve3app17websocket_handler
FN:438,_RNvNtCsgivOkgXOeDn_7mdserve3app19handle_image_change
FN:392,_RNvNtCsgivOkgXOeDn_7mdserve3app19handle_rename_event
FN:384,_RNvNtCsgivOkgXOeDn_7mdserve3app23schedule_delayed_rescan
FN:703,_RNvNtCsgivOkgXOeDn_7mdserve3app24guess_image_content_type
FN:356,_RNvNtCsgivOkgXOeDn_7mdserve3app25rescan_and_detect_changes
FN:425,_RNvNtCsgivOkgXOeDn_7mdserve3app26handle_md_create_or_modify
FN:282,_RNvNtCsgivOkgXOeDn_7mdserve3app27handle_markdown_file_change
FN:792,_RNvNtNtCsgivOkgXOeDn_7mdserve3app5testss_16test_format_host
FN:785,_RNvNtNtCsgivOkgXOeDn_7mdserve3app5testss_18test_is_image_file
FN:776,_RNvNtNtCsgivOkgXOeDn_7mdserve3app5testss_21test_is_markdown_file
FN:1044,_RNvNtNtCsgivOkgXOeDn_7mdserve3app5testss_29test_detect_file_change_other
FN:991,_RNvNtNtCsgivOkgXOeDn_7mdserve3app5testss_30test_detect_file_change_rename
FN:1025,_RNvNtNtCsgivOkgXOeDn_7mdserve3app5testss_31test_detect_file_change_removed
FN:859,_RNvNtNtCsgivOkgXOeDn_7mdserve3app5testss_31test_markdown_state_update_file
FN:1104,_RNvNtNtCsgivOkgXOeDn_7mdserve3app5testss_31test_send_change_message_reload
FN:895,_RNvNtNtCsgivOkgXOeDn_7mdserve3app5testss_32test_markdown_state_refresh_file
FN:1085,_RNvNtNtCsgivOkgXOeDn_7mdserve3app5testss_32test_send_change_message_removed
FN:1064,_RNvNtNtCsgivOkgXOeDn_7mdserve3app5testss_32test_send_change_message_renamed
FN:817,_RNvNtNtCsgivOkgXOeDn_7mdserve3app5testss_36test_markdown_state_add_tracked_file
FN:915,_RNvNtNtCsgivOkgXOeDn_7mdserve3app5testss_36test_markdown_state_rescan_directory
FN:798,_RNvNtNtCsgivOkgXOeDn_7mdserve3app5testss_40test_scan_markdown_files_empty_directory
FN:879,_RNvNtNtCsgivOkgXOeDn_7mdserve3app5testss_41test_markdown_state_update_file_not_found
FN:805,_RNvNtNtCsgivOkgXOeDn_7mdserve3app5testss_44test_scan_markdown_files_with_markdown_files
FN:840,_RNvNtNtCsgivOkgXOeDn_7mdserve3app5testss_46test_markdown_state_add_tracked_file_duplicate
FN:936,_RNvNtNtCsgivOkgXOeDn_7mdserve3app5testss_47test_markdown_state_rescan_directory_no_changes
FN:966,_RNvNtNtCsgivOkgXOeDn_7mdserve3app5testss_49test_markdown_state_rescan_directory_file_removed
FN:951,_RNvNtNtCsgivOkgXOeDn_7mdserve3app5testss_53test_markdown_state_rescan_directory_single_file_mode
FN:544,_RINvNtCsllJMZ0fVxzl_7mdserve3app14serve_markdownNtNtCs1AhsD0INetT_5alloc6string6StringECs6GKBiQDeDn4_7mdserve
FN:550,_RNCINvNtCsllJMZ0fVxzl_7mdserve3app14serve_markdownNtNtCs1AhsD0INetT_5alloc6string6StringE0Cs6GKBiQDeDn4_7mdserve
FNDA:0,_RINvNtCsllJMZ0fVxzl_7mdserve3app14serve_markdownpEB4_
FNDA:0,_RNCINvNtCsllJMZ0fVxzl_7mdserve3app14serve_markdownpE0B6_
FNDA:0,_RNCNCNCNvMNtCsllJMZ0fVxzl_7mdserve3appNtB8_13MarkdownState16rescan_directory000Ba_
FNDA:0,_RNCNCNvMNtCsllJMZ0fVxzl_7mdserve3appNtB6_13MarkdownState16rescan_directory00B8_
FNDA:0,_RNCNCNvNtCsllJMZ0fVxzl_7mdserve3app10new_routers0_00B7_
FNDA:6,_RNCNCNvNtCsllJMZ0fVxzl_7mdserve3app13api_get_files00B7_
FNDA:4,_RNCNCNvNtCsllJMZ0fVxzl_7mdserve3app16handle_websocket00B7_
FNDA:4,_RNCNCNvNtCsllJMZ0fVxzl_7mdserve3app16handle_websocket0s_0B7_
FNDA:4,_RNCNCNvNtCsllJMZ0fVxzl_7mdserve3app17websocket_handler00B7_
FNDA:0,_RNCNCNvNtCsllJMZ0fVxzl_7mdserve3app25rescan_and_detect_changes00B7_
FNDA:0,_RNCNvMNtCsllJMZ0fVxzl_7mdserve3appNtB4_13MarkdownState16rescan_directory0B6_
FNDA:0,_RNCNvMNtCsllJMZ0fVxzl_7mdserve3appNtB4_13MarkdownState16rescan_directorys_0B6_
FNDA:35,_RNCNvNtCsllJMZ0fVxzl_7mdserve3app10new_router0B5_
FNDA:0,_RNCNvNtCsllJMZ0fVxzl_7mdserve3app10new_routers0_0B5_
FNDA:9,_RNCNvNtCsllJMZ0fVxzl_7mdserve3app10new_routers_0B5_
FNDA:3,_RNCNvNtCsllJMZ0fVxzl_7mdserve3app12api_get_file0B5_
FNDA:2,_RNCNvNtCsllJMZ0fVxzl_7mdserve3app13api_get_files0B5_
FNDA:0,_RNCNvNtCsllJMZ0fVxzl_7mdserve3app13is_image_file0B5_
FNDA:0,_RNCNvNtCsllJMZ0fVxzl_7mdserve3app13server_health0B5_
FNDA:4,_RNCNvNtCsllJMZ0fVxzl_7mdserve3app15api_update_file0B5_
FNDA:0,_RNCNvNtCsllJMZ0fVxzl_7mdserve3app16api_serve_static0B5_
FNDA:3,_RNCNvNtCsllJMZ0fVxzl_7mdserve3app16handle_md_remove0B5_
FNDA:4,_RNCNvNtCsllJMZ0fVxzl_7mdserve3app16handle_websocket0B5_
FNDA:80,_RNCNvNtCsllJMZ0fVxzl_7mdserve3app16is_markdown_file0B5_
FNDA:80,_RNCNvNtCsllJMZ0fVxzl_7mdserve3app16is_markdown_files_0B5_
FNDA:35,_RNCNvNtCsllJMZ0fVxzl_7mdserve3app17handle_file_event0B5_
FNDA:4,_RNCNvNtCsllJMZ0fVxzl_7mdserve3app17websocket_handler0B5_
FNDA:0,_RNCNvNtCsllJMZ0fVxzl_7mdserve3app19handle_image_change0B5_
FNDA:0,_RNCNvNtCsllJMZ0fVxzl_7mdserve3app19handle_rename_event0B5_
FNDA:0,_RNCNvNtCsllJMZ0fVxzl_7mdserve3app23calculate_relative_path0B5_
FNDA:0,_RNCNvNtCsllJMZ0fVxzl_7mdserve3app23schedule_delayed_rescan0B5_
FNDA:0,_RNCNvNtCsllJMZ0fVxzl_7mdserve3app24guess_image_content_type0B5_
FNDA:0,_RNCNvNtCsllJMZ0fVxzl_7mdserve3app25rescan_and_detect_changes0B5_
FNDA:18,_RNCNvNtCsllJMZ0fVxzl_7mdserve3app26handle_md_create_or_modify0B5_
FNDA:18,_RNCNvNtCsllJMZ0fVxzl_7mdserve3app27handle_markdown_file_change0B5_
FNDA:4,_RNvMNtCsllJMZ0fVxzl_7mdserve3appNtB2_13MarkdownState11update_file
FNDA:6,_RNvMNtCsllJMZ0fVxzl_7mdserve3appNtB2_13MarkdownState12refresh_file
FNDA:0,_RNvMNtCsllJMZ0fVxzl_7mdserve3appNtB2_13MarkdownState16add_tracked_file
FNDA:0,_RNvMNtCsllJMZ0fVxzl_7mdserve3appNtB2_13MarkdownState16rescan_directory
FNDA:2,_RNvMNtCsllJMZ0fVxzl_7mdserve3appNtB2_13MarkdownState20get_sorted_filenames
FNDA:17,_RNvMNtCsllJMZ0fVxzl_7mdserve3appNtB2_13MarkdownState3new
FNDA:17,_RNvNtCsllJMZ0fVxzl_7mdserve3app10new_router
FNDA:0,_RNvNtCsllJMZ0fVxzl_7mdserve3app11format_host
FNDA:3,_RNvNtCsllJMZ0fVxzl_7mdserve3app12api_get_file
FNDA:2,_RNvNtCsllJMZ0fVxzl_7mdserve3app13api_get_files
FNDA:0,_RNvNtCsllJMZ0fVxzl_7mdserve3app13is_image_file
FNDA:0,_RNvNtCsllJMZ0fVxzl_7mdserve3app13server_health
FNDA:4,_RNvNtCsllJMZ0fVxzl_7mdserve3app15api_update_file
FNDA:0,_RNvNtCsllJMZ0fVxzl_7mdserve3app16api_serve_static
FNDA:3,_RNvNtCsllJMZ0fVxzl_7mdserve3app16handle_md_remove
FNDA:4,_RNvNtCsllJMZ0fVxzl_7mdserve3app16handle_websocket
FNDA:83,_RNvNtCsllJMZ0fVxzl_7mdserve3app16is_markdown_file
FNDA:35,_RNvNtCsllJMZ0fVxzl_7mdserve3app17handle_file_event
FNDA:4,_RNvNtCsllJMZ0fVxzl_7mdserve3app17websocket_handler
FNDA:0,_RNvNtCsllJMZ0fVxzl_7mdserve3app18detect_file_change
FNDA:0,_RNvNtCsllJMZ0fVxzl_7mdserve3app19handle_image_change
FNDA:0,_RNvNtCsllJMZ0fVxzl_7mdserve3app19handle_rename_event
FNDA:12,_RNvNtCsllJMZ0fVxzl_7mdserve3app19scan_markdown_files
FNDA:0,_RNvNtCsllJMZ0fVxzl_7mdserve3app19send_change_message
FNDA:53,_RNvNtCsllJMZ0fVxzl_7mdserve3app23calculate_relative_path
FNDA:0,_RNvNtCsllJMZ0fVxzl_7mdserve3app23schedule_delayed_rescan
FNDA:0,_RNvNtCsllJMZ0fVxzl_7mdserve3app24guess_image_content_type
FNDA:0,_RNvNtCsllJMZ0fVxzl_7mdserve3app25rescan_and_detect_changes
FNDA:18,_RNvNtCsllJMZ0fVxzl_7mdserve3app26handle_md_create_or_modify
FNDA:18,_RNvNtCsllJMZ0fVxzl_7mdserve3app27handle_markdown_file_change
FNDA:16,_RNvNtCsllJMZ0fVxzl_7mdserve3app29scan_markdown_files_recursive
FNDA:4,_RNCNCNCNvMNtCsgivOkgXOeDn_7mdserve3appNtB8_13MarkdownState16rescan_directory000Ba_
FNDA:4,_RNCNCNvMNtCsgivOkgXOeDn_7mdserve3appNtB6_13MarkdownState16rescan_directory00B8_
FNDA:4,_RNCNvMNtCsgivOkgXOeDn_7mdserve3appNtB4_13MarkdownState16rescan_directory0B6_
FNDA:3,_RNCNvMNtCsgivOkgXOeDn_7mdserve3appNtB4_13MarkdownState16rescan_directorys_0B6_
FNDA:3,_RNCNvNtCsgivOkgXOeDn_7mdserve3app13is_image_file0B5_
FNDA:12,_RNCNvNtCsgivOkgXOeDn_7mdserve3app16is_markdown_file0B5_
FNDA:12,_RNCNvNtCsgivOkgXOeDn_7mdserve3app16is_markdown_files_0B5_
FNDA:0,_RNCNvNtCsgivOkgXOeDn_7mdserve3app23calculate_relative_path0B5_
FNDA:2,_RNvMNtCsgivOkgXOeDn_7mdserve3appNtB2_13MarkdownState11update_file
FNDA:1,_RNvMNtCsgivOkgXOeDn_7mdserve3appNtB2_13MarkdownState12refresh_file
FNDA:2,_RNvMNtCsgivOkgXOeDn_7mdserve3appNtB2_13MarkdownState16add_tracked_file
FNDA:4,_RNvMNtCsgivOkgXOeDn_7mdserve3appNtB2_13MarkdownState16rescan_directory
FNDA:9,_RNvMNtCsgivOkgXOeDn_7mdserve3appNtB2_13MarkdownState3new
FNDA:2,_RNvNtCsgivOkgXOeDn_7mdserve3app11format_host
FNDA:3,_RNvNtCsgivOkgXOeDn_7mdserve3app13is_image_file
FNDA:12,_RNvNtCsgivOkgXOeDn_7mdserve3app16is_markdown_file
FNDA:3,_RNvNtCsgivOkgXOeDn_7mdserve3app18detect_file_change
FNDA:5,_RNvNtCsgivOkgXOeDn_7mdserve3app19scan_markdown_files
FNDA:3,_RNvNtCsgivOkgXOeDn_7mdserve3app19send_change_message
FNDA:12,_RNvNtCsgivOkgXOeDn_7mdserve3app23calculate_relative_path
FNDA:5,_RNvNtCsgivOkgXOeDn_7mdserve3app29scan_markdown_files_recursive
FNDA:0,_RINvNtCsgivOkgXOeDn_7mdserve3app14serve_markdownpEB4_
FNDA:0,_RNCINvNtCsgivOkgXOeDn_7mdserve3app14serve_markdownpE0B6_
FNDA:0,_RNCNCNvNtCsgivOkgXOeDn_7mdserve3app10new_routers0_00B7_
FNDA:0,_RNCNCNvNtCsgivOkgXOeDn_7mdserve3app13api_get_files00B7_
FNDA:0,_RNCNCNvNtCsgivOkgXOeDn_7mdserve3app16handle_websocket00B7_
FNDA:0,_RNCNCNvNtCsgivOkgXOeDn_7mdserve3app16handle_websocket0s_0B7_
FNDA:0,_RNCNCNvNtCsgivOkgXOeDn_7mdserve3app17websocket_handler00B7_
FNDA:0,_RNCNCNvNtCsgivOkgXOeDn_7mdserve3app25rescan_and_detect_changes00B7_
FNDA:0,_RNCNvNtCsgivOkgXOeDn_7mdserve3app10new_router0B5_
FNDA:0,_RNCNvNtCsgivOkgXOeDn_7mdserve3app10new_routers0_0B5_
FNDA:0,_RNCNvNtCsgivOkgXOeDn_7mdserve3app10new_routers_0B5_
FNDA:0,_RNCNvNtCsgivOkgXOeDn_7mdserve3app12api_get_file0B5_
FNDA:0,_RNCNvNtCsgivOkgXOeDn_7mdserve3app13api_get_files0B5_
FNDA:0,_RNCNvNtCsgivOkgXOeDn_7mdserve3app13server_health0B5_
FNDA:0,_RNCNvNtCsgivOkgXOeDn_7mdserve3app15api_update_file0B5_
FNDA:0,_RNCNvNtCsgivOkgXOeDn_7mdserve3app16api_serve_static0B5_
FNDA:0,_RNCNvNtCsgivOkgXOeDn_7mdserve3app16handle_md_remove0B5_
FNDA:0,_RNCNvNtCsgivOkgXOeDn_7mdserve3app16handle_websocket0B5_
FNDA:0,_RNCNvNtCsgivOkgXOeDn_7mdserve3app17handle_file_event0B5_
FNDA:0,_RNCNvNtCsgivOkgXOeDn_7mdserve3app17websocket_handler0B5_
FNDA:0,_RNCNvNtCsgivOkgXOeDn_7mdserve3app19handle_image_change0B5_
FNDA:0,_RNCNvNtCsgivOkgXOeDn_7mdserve3app19handle_rename_event0B5_
FNDA:0,_RNCNvNtCsgivOkgXOeDn_7mdserve3app23schedule_delayed_rescan0B5_
FNDA:0,_RNCNvNtCsgivOkgXOeDn_7mdserve3app24guess_image_content_type0B5_
FNDA:0,_RNCNvNtCsgivOkgXOeDn_7mdserve3app25rescan_and_detect_changes0B5_
FNDA:0,_RNCNvNtCsgivOkgXOeDn_7mdserve3app26handle_md_create_or_modify0B5_
FNDA:0,_RNCNvNtCsgivOkgXOeDn_7mdserve3app27handle_markdown_file_change0B5_
FNDA:0,_RNvMNtCsgivOkgXOeDn_7mdserve3appNtB2_13MarkdownState20get_sorted_filenames
FNDA:0,_RNvNtCsgivOkgXOeDn_7mdserve3app10new_router
FNDA:0,_RNvNtCsgivOkgXOeDn_7mdserve3app12api_get_file
FNDA:0,_RNvNtCsgivOkgXOeDn_7mdserve3app13api_get_files
FNDA:0,_RNvNtCsgivOkgXOeDn_7mdserve3app13server_health
FNDA:0,_RNvNtCsgivOkgXOeDn_7mdserve3app15api_update_file
FNDA:0,_RNvNtCsgivOkgXOeDn_7mdserve3app16api_serve_static
FNDA:0,_RNvNtCsgivOkgXOeDn_7mdserve3app16handle_md_remove
FNDA:0,_RNvNtCsgivOkgXOeDn_7mdserve3app16handle_websocket
FNDA:0,_RNvNtCsgivOkgXOeDn_7mdserve3app17handle_file_event
FNDA:0,_RNvNtCsgivOkgXOeDn_7mdserve3app17websocket_handler
FNDA:0,_RNvNtCsgivOkgXOeDn_7mdserve3app19handle_image_change
FNDA:0,_RNvNtCsgivOkgXOeDn_7mdserve3app19handle_rename_event
FNDA:0,_RNvNtCsgivOkgXOeDn_7mdserve3app23schedule_delayed_rescan
FNDA:0,_RNvNtCsgivOkgXOeDn_7mdserve3app24guess_image_content_type
FNDA:0,_RNvNtCsgivOkgXOeDn_7mdserve3app25rescan_and_detect_changes
FNDA:0,_RNvNtCsgivOkgXOeDn_7mdserve3app26handle_md_create_or_modify
FNDA:0,_RNvNtCsgivOkgXOeDn_7mdserve3app27handle_markdown_file_change
FNDA:1,_RNvNtNtCsgivOkgXOeDn_7mdserve3app5testss_16test_format_host
FNDA:1,_RNvNtNtCsgivOkgXOeDn_7mdserve3app5testss_18test_is_image_file
FNDA:1,_RNvNtNtCsgivOkgXOeDn_7mdserve3app5testss_21test_is_markdown_file
FNDA:1,_RNvNtNtCsgivOkgXOeDn_7mdserve3app5testss_29test_detect_file_change_other
FNDA:1,_RNvNtNtCsgivOkgXOeDn_7mdserve3app5testss_30test_detect_file_change_rename
FNDA:1,_RNvNtNtCsgivOkgXOeDn_7mdserve3app5testss_31test_detect_file_change_removed
FNDA:1,_RNvNtNtCsgivOkgXOeDn_7mdserve3app5testss_31test_markdown_state_update_file
FNDA:1,_RNvNtNtCsgivOkgXOeDn_7mdserve3app5testss_31test_send_change_message_reload
FNDA:1,_RNvNtNtCsgivOkgXOeDn_7mdserve3app5testss_32test_markdown_state_refresh_file
FNDA:1,_RNvNtNtCsgivOkgXOeDn_7mdserve3app5testss_32test_send_change_message_removed
FNDA:1,_RNvNtNtCsgivOkgXOeDn_7mdserve3app5testss_32test_send_change_message_renamed
FNDA:1,_RNvNtNtCsgivOkgXOeDn_7mdserve3app5testss_36test_markdown_state_add_tracked_file
FNDA:1,_RNvNtNtCsgivOkgXOeDn_7mdserve3app5testss_36test_markdown_state_rescan_directory
FNDA:1,_RNvNtNtCsgivOkgXOeDn_7mdserve3app5testss_40test_scan_markdown_files_empty_directory
FNDA:1,_RNvNtNtCsgivOkgXOeDn_7mdserve3app5testss_41test_markdown_state_update_file_not_found
FNDA:1,_RNvNtNtCsgivOkgXOeDn_7mdserve3app5testss_44test_scan_markdown_files_with_markdown_files
FNDA:1,_RNvNtNtCsgivOkgXOeDn_7mdserve3app5testss_46test_markdown_state_add_tracked_file_duplicate
FNDA:1,_RNvNtNtCsgivOkgXOeDn_7mdserve3app5testss_47test_markdown_state_rescan_directory_no_changes
FNDA:1,_RNvNtNtCsgivOkgXOeDn_7mdserve3app5testss_49test_markdown_state_rescan_directory_file_removed
FNDA:1,_RNvNtNtCsgivOkgXOeDn_7mdserve3app5testss_53test_markdown_state_rescan_directory_single_file_mode
FNDA:0,_RINvNtCsllJMZ0fVxzl_7mdserve3app14serve_markdownNtNtCs1AhsD0INetT_5alloc6string6StringECs6GKBiQDeDn4_7mdserve
FNDA:0,_RNCINvNtCsllJMZ0fVxzl_7mdserve3app14serve_markdownNtNtCs1AhsD0INetT_5alloc6string6StringE0Cs6GKBiQDeDn4_7mdserve
FNF:86
FNH:66
DA:72,17
DA:73,17
DA:74,17
DA:75,17
DA:76,17
DA:77,17
DA:79,21
DA:80,41
DA:81,41
DA:82,41
DA:84,41
DA:85,36
DA:86,36
DA:87,4
DA:88,1
DA:91,21
DA:92,21
DA:94,95
DA:95,95
DA:96,95
DA:97,95
DA:98,95
DA:99,95
DA:101,65
DA:102,65
DA:103,59
DA:104,59
DA:105,59
DA:106,59
DA:107,59
DA:108,59
DA:109,65
DA:126,26
DA:127,26
DA:129,26
DA:130,71
DA:131,45
DA:132,45
DA:133,45
DA:134,45
DA:135,45
DA:137,45
DA:138,45
DA:139,45
DA:140,45
DA:141,45
DA:142,45
DA:143,45
DA:144,45
DA:148,26
DA:149,26
DA:150,26
DA:151,26
DA:152,26
DA:153,26
DA:154,26
DA:156,2
DA:157,2
DA:158,2
DA:159,2
DA:160,2
DA:162,7
DA:163,7
DA:164,7
DA:165,7
DA:167,7
DA:168,3
DA:169,3
DA:170,3
DA:171,4
DA:172,0
DA:174,7
DA:175,7
DA:177,6
DA:178,6
DA:179,4
DA:180,4
DA:181,4
DA:182,4
DA:183,4
DA:185,2
DA:188,4
DA:189,6
DA:191,2
DA:192,2
DA:194,2
DA:195,1
DA:196,1
DA:198,1
DA:199,1
DA:200,1
DA:202,1
DA:203,1
DA:205,1
DA:206,1
DA:207,1
DA:208,1
DA:212,1
DA:213,2
DA:215,4
DA:216,4
DA:217,1
DA:218,3
DA:220,3
DA:221,3
DA:222,3
DA:223,4
DA:224,4
DA:225,4
DA:226,4
DA:227,4
DA:228,4
DA:229,4
DA:230,4
DA:231,3
DA:233,3
DA:234,3
DA:236,3
DA:237,1
DA:238,2
DA:240,2
DA:241,3
DA:243,5
DA:244,3
DA:245,0
DA:247,3
DA:248,0
DA:250,3
DA:252,3
DA:253,2
DA:254,1
DA:256,1
DA:257,0
DA:259,1
DA:260,0
DA:262,1
DA:263,0
DA:265,1
DA:267,1
DA:268,1
DA:269,1
DA:270,1
DA:271,1
DA:272,1
DA:273,1
DA:274,1
DA:278,2
DA:279,4
DA:282,18
DA:283,18
DA:284,0
DA:285,18
DA:287,18
DA:289,18
DA:290,6
DA:293,12
DA:294,4
DA:295,4
DA:296,4
DA:297,8
DA:298,0
DA:299,0
DA:300,0
DA:301,0
DA:302,0
DA:303,8
DA:304,18
DA:312,3
DA:313,3
DA:314,3
DA:315,3
DA:316,3
DA:317,3
DA:318,3
DA:319,3
DA:321,3
DA:322,1
DA:323,1
DA:324,1
DA:326,1
DA:327,1
DA:328,1
DA:329,1
DA:330,1
DA:331,0
DA:332,0
DA:333,2
DA:335,2
DA:336,1
DA:337,1
DA:338,1
DA:339,1
DA:341,1
DA:342,3
DA:344,3
DA:345,3
DA:346,1
DA:347,1
DA:349,1
DA:350,1
DA:353,3
DA:354,3
DA:356,0
DA:357,0
DA:358,0
DA:359,0
DA:360,0
DA:361,0
DA:362,0
DA:363,0
DA:364,0
DA:365,0
DA:368,0
DA:370,0
DA:371,0
DA:374,0
DA:375,0
DA:376,0
DA:378,0
DA:380,0
DA:381,0
DA:382,0
DA:384,0
DA:385,0
DA:386,0
DA:387,0
DA:388,0
DA:389,0
DA:390,0
DA:392,0
DA:393,0
DA:394,0
DA:395,0
DA:396,0
DA:399,0
DA:400,0
DA:401,0
DA:402,0
DA:403,0
DA:405,0
DA:407,0
DA:408,0
DA:411,0
DA:412,0
DA:415,0
DA:416,0
DA:417,0
DA:418,0
DA:419,0
DA:421,0
DA:423,0
DA:425,18
DA:426,18
DA:427,18
DA:429,3
DA:430,3
DA:431,3
DA:432,3
DA:433,0
DA:435,0
DA:436,3
DA:438,0
DA:439,0
DA:440,0
DA:441,0
DA:443,35
DA:447,21
DA:448,0
DA:449,0
DA:452,70
DA:453,35
DA:454,20
DA:456,18
DA:459,3
DA:461,11
DA:463,3
DA:464,0
DA:466,0
DA:468,0
DA:470,3
DA:474,35
DA:476,17
DA:477,17
DA:478,17
DA:479,17
DA:480,17
DA:481,17
DA:483,17
DA:484,17
DA:485,17
DA:486,17
DA:487,0
DA:489,17
DA:490,17
DA:492,17
DA:493,35
DA:494,35
DA:495,35
DA:496,35
DA:497,35
DA:498,17
DA:499,0
DA:501,17
DA:503,17
DA:504,9
DA:505,44
DA:506,35
DA:508,0
DA:511,17
DA:512,17
DA:513,17
DA:514,17
DA:515,17
DA:516,17
DA:517,17
DA:518,17
DA:520,0
DA:523,0
DA:526,17
DA:527,17
DA:528,17
DA:529,17
DA:530,17
DA:531,17
DA:532,17
DA:533,17
DA:535,17
DA:536,17
DA:538,0
DA:541,17
DA:542,17
DA:544,0
DA:545,0
DA:546,0
DA:547,0
DA:548,0
DA:549,0
DA:550,0
DA:551,0
DA:553,0
DA:554,0
DA:556,0
DA:558,0
DA:560,0
DA:561,0
DA:562,0
DA:563,0
DA:564,0
DA:566,0
DA:567,0
DA:568,0
DA:570,0
DA:572,0
DA:573,0
DA:575,2
DA:576,2
DA:577,1
DA:579,1
DA:581,2
DA:583,2
DA:584,2
DA:585,2
DA:586,2
DA:587,2
DA:588,6
DA:589,2
DA:591,2
DA:592,2
DA:594,3
DA:595,3
DA:596,3
DA:597,3
DA:598,3
DA:600,3
DA:601,1
DA:602,1
DA:603,1
DA:604,1
DA:605,1
DA:606,2
DA:608,2
DA:610,2
DA:611,2
DA:612,2
DA:613,2
DA:614,2
DA:616,0
DA:617,0
DA:618,0
DA:619,0
DA:620,0
DA:622,3
DA:624,4
DA:625,4
DA:626,4
DA:627,4
DA:628,4
DA:629,4
DA:631,4
DA:632,3
DA:633,1
DA:634,1
DA:635,1
DA:636,1
DA:637,1
DA:639,4
DA:641,0
DA:642,0
DA:643,0
DA:644,0
DA:645,0
DA:647,0
DA:649,0
DA:650,0
DA:651,0
DA:652,0
DA:653,0
DA:654,0
DA:655,0
DA:656,0
DA:657,0
DA:658,0
DA:660,0
DA:661,0
DA:662,0
DA:663,0
DA:664,0
DA:665,0
DA:666,0
DA:667,0
DA:668,0
DA:670,0
DA:671,0
DA:672,0
DA:673,0
DA:674,0
DA:675,0
DA:678,0
DA:679,0
DA:680,0
DA:681,0
DA:682,0
DA:683,0
DA:685,0
DA:687,0
DA:688,0
DA:689,0
DA:691,3
DA:692,3
DA:693,3
DA:694,3
DA:695,3
DA:697,2
DA:698,3
DA:699,3
DA:701,3
DA:703,0
DA:704,0
DA:705,0
DA:706,0
DA:707,0
DA:709,0
DA:710,0
DA:711,0
DA:712,0
DA:713,0
DA:714,0
DA:715,0
DA:716,0
DA:717,0
DA:719,0
DA:720,0
DA:722,4
DA:723,4
DA:724,4
DA:725,4
DA:726,4
DA:727,4
DA:729,4
DA:730,4
DA:732,4
DA:733,4
DA:734,4
DA:737,4
DA:738,4
DA:739,0
DA:740,0
DA:741,0
DA:742,0
DA:743,0
DA:745,0
DA:747,0
DA:748,0
DA:751,0
DA:753,4
DA:754,9
DA:755,5
DA:756,5
DA:757,0
DA:758,5
DA:759,0
DA:761,0
DA:763,4
DA:764,4
DA:765,4
DA:767,0
DA:776,1
DA:777,1
DA:778,1
DA:779,1
DA:780,1
DA:781,1
DA:782,1
DA:785,1
DA:786,1
DA:787,1
DA:788,1
DA:789,1
DA:792,1
DA:793,1
DA:794,1
DA:795,1
DA:798,1
DA:799,1
DA:800,1
DA:801,1
DA:802,1
DA:805,1
DA:806,1
DA:808,1
DA:809,1
DA:810,1
DA:812,1
DA:813,1
DA:814,1
DA:817,1
DA:818,1
DA:819,1
DA:820,1
DA:821,1
DA:823,1
DA:824,1
DA:825,1
DA:827,1
DA:828,1
DA:830,1
DA:831,1
DA:832,1
DA:834,1
DA:835,1
DA:836,1
DA:837,1
DA:840,1
DA:841,1
DA:842,1
DA:843,1
DA:844,1
DA:846,1
DA:847,1
DA:848,1
DA:851,1
DA:852,1
DA:853,1
DA:855,1
DA:856,1
DA:859,1
DA:860,1
DA:861,1
DA:862,1
DA:863,1
DA:865,1
DA:866,1
DA:867,1
DA:869,1
DA:870,1
DA:871,1
DA:873,1
DA:874,1
DA:875,1
DA:876,1
DA:879,1
DA:880,1
DA:881,1
DA:882,1
DA:883,1
DA:885,1
DA:886,1
DA:887,1
DA:889,1
DA:890,1
DA:891,1
DA:892,1
DA:895,1
DA:896,1
DA:897,1
DA:898,1
DA:899,1
DA:901,1
DA:902,1
DA:903,1
DA:906,1
DA:907,1
DA:909,1
DA:911,1
DA:912,1
DA:915,1
DA:916,1
DA:917,1
DA:918,1
DA:919,1
DA:921,1
DA:922,1
DA:923,1
DA:926,1
DA:927,1
DA:929,1
DA:930,1
DA:931,1
DA:932,1
DA:933,1
DA:936,1
DA:937,1
DA:938,1
DA:939,1
DA:940,1
DA:942,1
DA:943,1
DA:944,1
DA:946,1
DA:947,1
DA:948,1
DA:951,1
DA:952,1
DA:953,1
DA:954,1
DA:955,1
DA:957,1
DA:958,1
DA:959,1
DA:961,1
DA:962,1
DA:963,1
DA:966,1
DA:967,1
DA:968,1
DA:969,1
DA:970,1
DA:971,1
DA:972,1
DA:974,1
DA:975,1
DA:976,1
DA:978,1
DA:981,1
DA:983,1
DA:984,1
DA:985,1
DA:986,1
DA:987,1
DA:988,1
DA:991,1
DA:994,1
DA:995,1
DA:997,1
DA:998,1
DA:1000,1
DA:1001,1
DA:1002,1
DA:1004,1
DA:1005,1
DA:1006,1
DA:1007,1
DA:1008,1
DA:1009,1
DA:1010,1
DA:1011,1
DA:1012,1
DA:1015,1
DA:1016,1
DA:1017,1
DA:1018,1
DA:1020,0
DA:1022,1
DA:1025,1
DA:1028,1
DA:1029,1
DA:1031,1
DA:1032,1
DA:1033,1
DA:1035,1
DA:1036,1
DA:1037,1
DA:1039,0
DA:1041,1
DA:1044,1
DA:1047,1
DA:1048,1
DA:1050,1
DA:1051,1
DA:1052,1
DA:1054,1
DA:1055,1
DA:1057,1
DA:1058,1
DA:1059,0
DA:1061,1
DA:1064,1
DA:1065,1
DA:1067,1
DA:1068,1
DA:1069,1
DA:1070,1
DA:1071,1
DA:1072,1
DA:1075,1
DA:1076,1
DA:1077,1
DA:1078,1
DA:1080,0
DA:1082,1
DA:1085,1
DA:1086,1
DA:1088,1
DA:1089,1
DA:1090,1
DA:1091,1
DA:1092,1
DA:1095,1
DA:1096,1
DA:1097,1
DA:1099,0
DA:1101,1
DA:1104,1
DA:1105,1
DA:1107,1
DA:1109,1
DA:1110,1
DA:1111,0
DA:1113,1
BRF:0
BRH:0
LF:772
LH:575
end_of_record
SF:/Users/stefano/Documents/mdserve/src/main.rs
FN:33,_RNCNCNvCs1aUrZ3eGdht_7mdserve4main00B5_
FN:25,_RNCNvCs1aUrZ3eGdht_7mdserve4main0B3_
FN:25,_RNvCs1aUrZ3eGdht_7mdserve4main
FN:25,_RNvCs6GKBiQDeDn4_7mdserve4main
FN:33,_RNCNCNvCs6GKBiQDeDn4_7mdserve4main00B5_
FN:25,_RNCNvCs6GKBiQDeDn4_7mdserve4main0B3_
FNDA:0,_RNCNCNvCs1aUrZ3eGdht_7mdserve4main00B5_
FNDA:0,_RNCNvCs1aUrZ3eGdht_7mdserve4main0B3_
FNDA:0,_RNvCs1aUrZ3eGdht_7mdserve4main
FNDA:0,_RNvCs6GKBiQDeDn4_7mdserve4main
FNDA:0,_RNCNCNvCs6GKBiQDeDn4_7mdserve4main00B5_
FNDA:0,_RNCNvCs6GKBiQDeDn4_7mdserve4main0B3_
FNF:3
FNH:0
DA:25,0
DA:26,0
DA:27,0
DA:29,0
DA:31,0
DA:32,0
DA:33,0
DA:34,0
DA:35,0
DA:36,0
DA:37,0
DA:39,0
DA:40,0
DA:41,0
DA:42,0
DA:43,0
DA:45,0
DA:49,0
DA:50,0
DA:51,0
DA:52,0
DA:53,0
DA:54,0
DA:55,0
DA:56,0
DA:58,0
DA:59,0
BRF:0
BRH:0
LF:30
LH:0
end_of_record